
guess:     file format elf64-x86-64


Disassembly of section .init:

0000000000000780 <_init>:
 780:	48 83 ec 08          	sub    rsp,0x8
 784:	48 8b 05 5d 08 20 00 	mov    rax,QWORD PTR [rip+0x20085d]        # 200fe8 <__gmon_start__>
 78b:	48 85 c0             	test   rax,rax
 78e:	74 02                	je     792 <_init+0x12>
 790:	ff d0                	call   rax
 792:	48 83 c4 08          	add    rsp,0x8
 796:	c3                   	ret    

Disassembly of section .plt:

00000000000007a0 <.plt>:
 7a0:	ff 35 d2 07 20 00    	push   QWORD PTR [rip+0x2007d2]        # 200f78 <_GLOBAL_OFFSET_TABLE_+0x8>
 7a6:	ff 25 d4 07 20 00    	jmp    QWORD PTR [rip+0x2007d4]        # 200f80 <_GLOBAL_OFFSET_TABLE_+0x10>
 7ac:	0f 1f 40 00          	nop    DWORD PTR [rax+0x0]

00000000000007b0 <puts@plt>:
 7b0:	ff 25 d2 07 20 00    	jmp    QWORD PTR [rip+0x2007d2]        # 200f88 <puts@GLIBC_2.2.5>
 7b6:	68 00 00 00 00       	push   0x0
 7bb:	e9 e0 ff ff ff       	jmp    7a0 <.plt>

00000000000007c0 <getpid@plt>:
 7c0:	ff 25 ca 07 20 00    	jmp    QWORD PTR [rip+0x2007ca]        # 200f90 <getpid@GLIBC_2.2.5>
 7c6:	68 01 00 00 00       	push   0x1
 7cb:	e9 d0 ff ff ff       	jmp    7a0 <.plt>

00000000000007d0 <__stack_chk_fail@plt>:
 7d0:	ff 25 c2 07 20 00    	jmp    QWORD PTR [rip+0x2007c2]        # 200f98 <__stack_chk_fail@GLIBC_2.4>
 7d6:	68 02 00 00 00       	push   0x2
 7db:	e9 c0 ff ff ff       	jmp    7a0 <.plt>

00000000000007e0 <printf@plt>:
 7e0:	ff 25 ba 07 20 00    	jmp    QWORD PTR [rip+0x2007ba]        # 200fa0 <printf@GLIBC_2.2.5>
 7e6:	68 03 00 00 00       	push   0x3
 7eb:	e9 b0 ff ff ff       	jmp    7a0 <.plt>

00000000000007f0 <srand@plt>:
 7f0:	ff 25 b2 07 20 00    	jmp    QWORD PTR [rip+0x2007b2]        # 200fa8 <srand@GLIBC_2.2.5>
 7f6:	68 04 00 00 00       	push   0x4
 7fb:	e9 a0 ff ff ff       	jmp    7a0 <.plt>

0000000000000800 <fgets@plt>:
 800:	ff 25 aa 07 20 00    	jmp    QWORD PTR [rip+0x2007aa]        # 200fb0 <fgets@GLIBC_2.2.5>
 806:	68 05 00 00 00       	push   0x5
 80b:	e9 90 ff ff ff       	jmp    7a0 <.plt>

0000000000000810 <strtol@plt>:
 810:	ff 25 a2 07 20 00    	jmp    QWORD PTR [rip+0x2007a2]        # 200fb8 <strtol@GLIBC_2.2.5>
 816:	68 06 00 00 00       	push   0x6
 81b:	e9 80 ff ff ff       	jmp    7a0 <.plt>

0000000000000820 <time@plt>:
 820:	ff 25 9a 07 20 00    	jmp    QWORD PTR [rip+0x20079a]        # 200fc0 <time@GLIBC_2.2.5>
 826:	68 07 00 00 00       	push   0x7
 82b:	e9 70 ff ff ff       	jmp    7a0 <.plt>

0000000000000830 <setvbuf@plt>:
 830:	ff 25 92 07 20 00    	jmp    QWORD PTR [rip+0x200792]        # 200fc8 <setvbuf@GLIBC_2.2.5>
 836:	68 08 00 00 00       	push   0x8
 83b:	e9 60 ff ff ff       	jmp    7a0 <.plt>

0000000000000840 <rand@plt>:
 840:	ff 25 8a 07 20 00    	jmp    QWORD PTR [rip+0x20078a]        # 200fd0 <rand@GLIBC_2.2.5>
 846:	68 09 00 00 00       	push   0x9
 84b:	e9 50 ff ff ff       	jmp    7a0 <.plt>

Disassembly of section .plt.got:

0000000000000850 <__cxa_finalize@plt>:
 850:	ff 25 a2 07 20 00    	jmp    QWORD PTR [rip+0x2007a2]        # 200ff8 <__cxa_finalize@GLIBC_2.2.5>
 856:	66 90                	xchg   ax,ax

Disassembly of section .text:

0000000000000860 <_start>:
 860:	31 ed                	xor    ebp,ebp
 862:	49 89 d1             	mov    r9,rdx
 865:	5e                   	pop    rsi
 866:	48 89 e2             	mov    rdx,rsp
 869:	48 83 e4 f0          	and    rsp,0xfffffffffffffff0
 86d:	50                   	push   rax
 86e:	54                   	push   rsp
 86f:	4c 8d 05 8a 02 00 00 	lea    r8,[rip+0x28a]        # b00 <__libc_csu_fini>
 876:	48 8d 0d 13 02 00 00 	lea    rcx,[rip+0x213]        # a90 <__libc_csu_init>
 87d:	48 8d 3d e6 00 00 00 	lea    rdi,[rip+0xe6]        # 96a <main>
 884:	ff 15 56 07 20 00    	call   QWORD PTR [rip+0x200756]        # 200fe0 <__libc_start_main@GLIBC_2.2.5>
 88a:	f4                   	hlt    
 88b:	0f 1f 44 00 00       	nop    DWORD PTR [rax+rax*1+0x0]

0000000000000890 <deregister_tm_clones>:
 890:	48 8d 3d 79 07 20 00 	lea    rdi,[rip+0x200779]        # 201010 <stdout@@GLIBC_2.2.5>
 897:	55                   	push   rbp
 898:	48 8d 05 71 07 20 00 	lea    rax,[rip+0x200771]        # 201010 <stdout@@GLIBC_2.2.5>
 89f:	48 39 f8             	cmp    rax,rdi
 8a2:	48 89 e5             	mov    rbp,rsp
 8a5:	74 19                	je     8c0 <deregister_tm_clones+0x30>
 8a7:	48 8b 05 2a 07 20 00 	mov    rax,QWORD PTR [rip+0x20072a]        # 200fd8 <_ITM_deregisterTMCloneTable>
 8ae:	48 85 c0             	test   rax,rax
 8b1:	74 0d                	je     8c0 <deregister_tm_clones+0x30>
 8b3:	5d                   	pop    rbp
 8b4:	ff e0                	jmp    rax
 8b6:	66 2e 0f 1f 84 00 00 	nop    WORD PTR cs:[rax+rax*1+0x0]
 8bd:	00 00 00 
 8c0:	5d                   	pop    rbp
 8c1:	c3                   	ret    
 8c2:	0f 1f 40 00          	nop    DWORD PTR [rax+0x0]
 8c6:	66 2e 0f 1f 84 00 00 	nop    WORD PTR cs:[rax+rax*1+0x0]
 8cd:	00 00 00 

00000000000008d0 <register_tm_clones>:
 8d0:	48 8d 3d 39 07 20 00 	lea    rdi,[rip+0x200739]        # 201010 <stdout@@GLIBC_2.2.5>
 8d7:	48 8d 35 32 07 20 00 	lea    rsi,[rip+0x200732]        # 201010 <stdout@@GLIBC_2.2.5>
 8de:	55                   	push   rbp
 8df:	48 29 fe             	sub    rsi,rdi
 8e2:	48 89 e5             	mov    rbp,rsp
 8e5:	48 c1 fe 03          	sar    rsi,0x3
 8e9:	48 89 f0             	mov    rax,rsi
 8ec:	48 c1 e8 3f          	shr    rax,0x3f
 8f0:	48 01 c6             	add    rsi,rax
 8f3:	48 d1 fe             	sar    rsi,1
 8f6:	74 18                	je     910 <register_tm_clones+0x40>
 8f8:	48 8b 05 f1 06 20 00 	mov    rax,QWORD PTR [rip+0x2006f1]        # 200ff0 <_ITM_registerTMCloneTable>
 8ff:	48 85 c0             	test   rax,rax
 902:	74 0c                	je     910 <register_tm_clones+0x40>
 904:	5d                   	pop    rbp
 905:	ff e0                	jmp    rax
 907:	66 0f 1f 84 00 00 00 	nop    WORD PTR [rax+rax*1+0x0]
 90e:	00 00 
 910:	5d                   	pop    rbp
 911:	c3                   	ret    
 912:	0f 1f 40 00          	nop    DWORD PTR [rax+0x0]
 916:	66 2e 0f 1f 84 00 00 	nop    WORD PTR cs:[rax+rax*1+0x0]
 91d:	00 00 00 

0000000000000920 <__do_global_dtors_aux>:
 920:	80 3d 01 07 20 00 00 	cmp    BYTE PTR [rip+0x200701],0x0        # 201028 <completed.7697>
 927:	75 2f                	jne    958 <__do_global_dtors_aux+0x38>
 929:	48 83 3d c7 06 20 00 	cmp    QWORD PTR [rip+0x2006c7],0x0        # 200ff8 <__cxa_finalize@GLIBC_2.2.5>
 930:	00 
 931:	55                   	push   rbp
 932:	48 89 e5             	mov    rbp,rsp
 935:	74 0c                	je     943 <__do_global_dtors_aux+0x23>
 937:	48 8b 3d ca 06 20 00 	mov    rdi,QWORD PTR [rip+0x2006ca]        # 201008 <__dso_handle>
 93e:	e8 0d ff ff ff       	call   850 <__cxa_finalize@plt>
 943:	e8 48 ff ff ff       	call   890 <deregister_tm_clones>
 948:	c6 05 d9 06 20 00 01 	mov    BYTE PTR [rip+0x2006d9],0x1        # 201028 <completed.7697>
 94f:	5d                   	pop    rbp
 950:	c3                   	ret    
 951:	0f 1f 80 00 00 00 00 	nop    DWORD PTR [rax+0x0]
 958:	f3 c3                	repz ret 
 95a:	66 0f 1f 44 00 00    	nop    WORD PTR [rax+rax*1+0x0]

0000000000000960 <frame_dummy>:
 960:	55                   	push   rbp
 961:	48 89 e5             	mov    rbp,rsp
 964:	5d                   	pop    rbp
 965:	e9 66 ff ff ff       	jmp    8d0 <register_tm_clones>

000000000000096a <main>:
 96a:	55                   	push   rbp
 96b:	48 89 e5             	mov    rbp,rsp
 96e:	53                   	push   rbx
 96f:	48 83 ec 38          	sub    rsp,0x38
 973:	64 48 8b 04 25 28 00 	mov    rax,QWORD PTR fs:0x28
 97a:	00 00 
 97c:	48 89 45 e8          	mov    QWORD PTR [rbp-0x18],rax
 980:	31 c0                	xor    eax,eax
 982:	48 8b 05 87 06 20 00 	mov    rax,QWORD PTR [rip+0x200687]        # 201010 <stdout@@GLIBC_2.2.5>
 989:	b9 00 00 00 00       	mov    ecx,0x0
 98e:	ba 02 00 00 00       	mov    edx,0x2
 993:	be 00 00 00 00       	mov    esi,0x0
 998:	48 89 c7             	mov    rdi,rax
 99b:	e8 90 fe ff ff       	call   830 <setvbuf@plt>
 9a0:	bf 00 00 00 00       	mov    edi,0x0
 9a5:	e8 76 fe ff ff       	call   820 <time@plt>
 9aa:	89 c3                	mov    ebx,eax
 9ac:	e8 0f fe ff ff       	call   7c0 <getpid@plt>
 9b1:	31 d8                	xor    eax,ebx
 9b3:	89 c7                	mov    edi,eax
 9b5:	e8 36 fe ff ff       	call   7f0 <srand@plt>
 9ba:	e8 81 fe ff ff       	call   840 <rand@plt>
 9bf:	89 c1                	mov    ecx,eax
 9c1:	ba ad 8b db 68       	mov    edx,0x68db8bad
 9c6:	89 c8                	mov    eax,ecx
 9c8:	f7 ea                	imul   edx
 9ca:	c1 fa 0c             	sar    edx,0xc
 9cd:	89 c8                	mov    eax,ecx
 9cf:	c1 f8 1f             	sar    eax,0x1f
 9d2:	29 c2                	sub    edx,eax
 9d4:	89 d0                	mov    eax,edx
 9d6:	69 c0 10 27 00 00    	imul   eax,eax,0x2710
 9dc:	29 c1                	sub    ecx,eax
 9de:	89 c8                	mov    eax,ecx
 9e0:	89 45 e0             	mov    DWORD PTR [rbp-0x20],eax
 9e3:	48 8d 3d 2a 01 00 00 	lea    rdi,[rip+0x12a]        # b14 <_IO_stdin_used+0x4>
 9ea:	b8 00 00 00 00       	mov    eax,0x0
 9ef:	e8 ec fd ff ff       	call   7e0 <printf@plt>
 9f4:	48 8b 15 25 06 20 00 	mov    rdx,QWORD PTR [rip+0x200625]        # 201020 <stdin@@GLIBC_2.2.5>
 9fb:	48 8d 45 d0          	lea    rax,[rbp-0x30]
 9ff:	be 14 00 00 00       	mov    esi,0x14
 a04:	48 89 c7             	mov    rdi,rax
 a07:	e8 f4 fd ff ff       	call   800 <fgets@plt>
 a0c:	48 85 c0             	test   rax,rax
 a0f:	74 51                	je     a62 <main+0xf8>
 a11:	48 8d 45 d0          	lea    rax,[rbp-0x30]
 a15:	ba 00 00 00 00       	mov    edx,0x0
 a1a:	be 00 00 00 00       	mov    esi,0x0
 a1f:	48 89 c7             	mov    rdi,rax
 a22:	e8 e9 fd ff ff       	call   810 <strtol@plt>
 a27:	89 45 cc             	mov    DWORD PTR [rbp-0x34],eax
 a2a:	8b 45 cc             	mov    eax,DWORD PTR [rbp-0x34]
 a2d:	89 c6                	mov    esi,eax
 a2f:	48 8d 3d f1 00 00 00 	lea    rdi,[rip+0xf1]        # b27 <_IO_stdin_used+0x17>
 a36:	b8 00 00 00 00       	mov    eax,0x0
 a3b:	e8 a0 fd ff ff       	call   7e0 <printf@plt>
 a40:	8b 45 e0             	mov    eax,DWORD PTR [rbp-0x20]
 a43:	39 45 cc             	cmp    DWORD PTR [rbp-0x34],eax
 a46:	75 0e                	jne    a56 <main+0xec>
 a48:	48 8d 3d ea 00 00 00 	lea    rdi,[rip+0xea]        # b39 <_IO_stdin_used+0x29>
 a4f:	e8 5c fd ff ff       	call   7b0 <puts@plt>
 a54:	eb 0c                	jmp    a62 <main+0xf8>
 a56:	48 8d 3d e3 00 00 00 	lea    rdi,[rip+0xe3]        # b40 <_IO_stdin_used+0x30>
 a5d:	e8 4e fd ff ff       	call   7b0 <puts@plt>
 a62:	b8 00 00 00 00       	mov    eax,0x0
 a67:	48 8b 5d e8          	mov    rbx,QWORD PTR [rbp-0x18]
 a6b:	64 48 33 1c 25 28 00 	xor    rbx,QWORD PTR fs:0x28
 a72:	00 00 
 a74:	74 05                	je     a7b <main+0x111>
 a76:	e8 55 fd ff ff       	call   7d0 <__stack_chk_fail@plt>
 a7b:	48 83 c4 38          	add    rsp,0x38
 a7f:	5b                   	pop    rbx
 a80:	5d                   	pop    rbp
 a81:	c3                   	ret    
 a82:	66 2e 0f 1f 84 00 00 	nop    WORD PTR cs:[rax+rax*1+0x0]
 a89:	00 00 00 
 a8c:	0f 1f 40 00          	nop    DWORD PTR [rax+0x0]

0000000000000a90 <__libc_csu_init>:
 a90:	41 57                	push   r15
 a92:	41 56                	push   r14
 a94:	49 89 d7             	mov    r15,rdx
 a97:	41 55                	push   r13
 a99:	41 54                	push   r12
 a9b:	4c 8d 25 ce 02 20 00 	lea    r12,[rip+0x2002ce]        # 200d70 <__frame_dummy_init_array_entry>
 aa2:	55                   	push   rbp
 aa3:	48 8d 2d ce 02 20 00 	lea    rbp,[rip+0x2002ce]        # 200d78 <__init_array_end>
 aaa:	53                   	push   rbx
 aab:	41 89 fd             	mov    r13d,edi
 aae:	49 89 f6             	mov    r14,rsi
 ab1:	4c 29 e5             	sub    rbp,r12
 ab4:	48 83 ec 08          	sub    rsp,0x8
 ab8:	48 c1 fd 03          	sar    rbp,0x3
 abc:	e8 bf fc ff ff       	call   780 <_init>
 ac1:	48 85 ed             	test   rbp,rbp
 ac4:	74 20                	je     ae6 <__libc_csu_init+0x56>
 ac6:	31 db                	xor    ebx,ebx
 ac8:	0f 1f 84 00 00 00 00 	nop    DWORD PTR [rax+rax*1+0x0]
 acf:	00 
 ad0:	4c 89 fa             	mov    rdx,r15
 ad3:	4c 89 f6             	mov    rsi,r14
 ad6:	44 89 ef             	mov    edi,r13d
 ad9:	41 ff 14 dc          	call   QWORD PTR [r12+rbx*8]
 add:	48 83 c3 01          	add    rbx,0x1
 ae1:	48 39 dd             	cmp    rbp,rbx
 ae4:	75 ea                	jne    ad0 <__libc_csu_init+0x40>
 ae6:	48 83 c4 08          	add    rsp,0x8
 aea:	5b                   	pop    rbx
 aeb:	5d                   	pop    rbp
 aec:	41 5c                	pop    r12
 aee:	41 5d                	pop    r13
 af0:	41 5e                	pop    r14
 af2:	41 5f                	pop    r15
 af4:	c3                   	ret    
 af5:	90                   	nop
 af6:	66 2e 0f 1f 84 00 00 	nop    WORD PTR cs:[rax+rax*1+0x0]
 afd:	00 00 00 

0000000000000b00 <__libc_csu_fini>:
 b00:	f3 c3                	repz ret 

Disassembly of section .fini:

0000000000000b04 <_fini>:
 b04:	48 83 ec 08          	sub    rsp,0x8
 b08:	48 83 c4 08          	add    rsp,0x8
 b0c:	c3                   	ret    
